(dp1
S'origin'
p2
S'VARCHAR(512)'
p3
sS'client_ip'
p4
S'VARCHAR(512)'
p5
sS'user_id'
p6
S'INTEGER REFERENCES auth_user(id) ON DELETE CASCADE'
p7
sS'description'
p8
S'TEXT'
p9
sS'time_stamp'
p10
S'TIMESTAMP'
p11
sS'id'
p12
S'SERIAL PRIMARY KEY'
p13
s.