(dp1
S'feedback_id'
p2
S'INTEGER REFERENCES add_feedback(id) ON DELETE CASCADE'
p3
sS'vote_type'
p4
S'CHAR(512)'
p5
sS'user_id'
p6
S'INTEGER REFERENCES auth_user(id) ON DELETE CASCADE'
p7
sS'id'
p8
S'INTEGER PRIMARY KEY AUTOINCREMENT'
p9
s.